; Function Attrs: nofree norecurse nosync nounwind memory(read, inaccessiblemem: none) uwtable
define range(i32 0, 2) i32 @Gia_ManFraigCheckCis(ptr noundef readonly captures(none) %0, ptr noundef %1) local_unnamed_addr #4 {
  %.0.val6 = load i64, ptr %1, align 4
  %3 = and i64 %.0.val6, 2684354559
  %narrow.i.not7 = icmp eq i64 %3, 2684354559
  br i1 %narrow.i.not7, label %.lr.ph, label %._crit_edge

.lr.ph:                                           ; preds = %2
  %4 = getelementptr inbounds nuw i8, ptr %0, i64 616
  %5 = load ptr, ptr %4, align 8, !tbaa !3
  %6 = getelementptr i8, ptr %0, i64 32
  %.val.i = load ptr, ptr %6, align 8, !tbaa !28
  %7 = ptrtoint ptr %.val.i to i64
  %8 = getelementptr inbounds nuw i8, ptr %0, i64 176
  %9 = load i32, ptr %8, align 8, !tbaa !30
  br label %13

10:                                               ; preds = %13
  %11 = getelementptr inbounds i8, ptr %.08, i64 -12
  %.0.val = load i64, ptr %11, align 4
  %12 = and i64 %.0.val, 2684354559
  %narrow.i.not = icmp eq i64 %12, 2684354559
  br i1 %narrow.i.not, label %13, label %._crit_edge, !llvm.loop !63

13:                                               ; preds = %.lr.ph, %10
  %.08 = phi ptr [ %1, %.lr.ph ], [ %11, %10 ]
  %14 = ptrtoint ptr %.08 to i64
  %15 = sub i64 %14, %7
  %16 = sdiv exact i64 %15, 12
  %sext.i = shl i64 %16, 32
  %17 = ashr exact i64 %sext.i, 30
  %18 = getelementptr inbounds i8, ptr %5, i64 %17
  %19 = load i32, ptr %18, align 4, !tbaa !29
  %.not = icmp eq i32 %19, %9
  br i1 %.not, label %._crit_edge, label %10

._crit_edge:                                      ; preds = %13, %10, %2
  %.04 = phi i32 [ 0, %2 ], [ 0, %10 ], [ 1, %13 ]
  ret i32 %.04
}